; Function Attrs: mustprogress uwtable
define void @_ZNK10open_spiel7othello4Move8ToStringB5cxx11Ev(ptr dead_on_unwind noalias writable sret(%"class.std::__cxx11::basic_string") align 8 %0, ptr noundef nonnull readonly align 4 captures(none) dereferenceable(8) %1) local_unnamed_addr #3 align 2 personality ptr @__gxx_personality_v0 {
  %3 = alloca %"class.std::allocator", align 1
  %4 = alloca %"class.absl::debian2::AlphaNum", align 8
  %5 = alloca %"class.std::allocator", align 1
  %6 = alloca %"class.absl::debian2::AlphaNum", align 8
  %7 = alloca %"class.std::__cxx11::basic_string", align 8
  %8 = alloca %"class.absl::debian2::AlphaNum", align 8
  %9 = alloca %"class.std::__cxx11::basic_string", align 8
  %10 = getelementptr inbounds nuw i8, ptr %1, i64 4
  %11 = load i32, ptr %10, align 4
  call void @llvm.lifetime.start.p0(i64 1, ptr nonnull %5)
  %12 = sext i32 %11 to i64
  %13 = getelementptr inbounds [9 x i8], ptr @.str.24, i64 0, i64 %12
  %14 = load i8, ptr %13, align 1, !noalias !4
  call void @_ZNSaIcEC1Ev(ptr noundef nonnull align 1 dereferenceable(1) %5) #24, !noalias !4
  %15 = invoke noundef ptr @_ZNSt7__cxx1112basic_stringIcSt11char_traitsIcESaIcEE13_M_local_dataEv(ptr noundef nonnull align 8 dereferenceable(32) %7)
          to label %.noexc.i unwind label %18

.noexc.i:                                         ; preds = %2
  invoke void @_ZNSt7__cxx1112basic_stringIcSt11char_traitsIcESaIcEE12_Alloc_hiderC1EPcRKS3_(ptr noundef nonnull align 8 dereferenceable(32) %7, ptr noundef %15, ptr noundef nonnull align 1 dereferenceable(1) %5)
          to label %.noexc2.i unwind label %18

.noexc2.i:                                        ; preds = %.noexc.i
  invoke void @_ZNSt7__cxx1112basic_stringIcSt11char_traitsIcESaIcEE12_M_constructEmc(ptr noundef nonnull align 8 dereferenceable(32) %7, i64 noundef 1, i8 noundef signext %14)
          to label %_ZN10open_spiel7othello12_GLOBAL__N_112ColumnStringB5cxx11Ei.exit unwind label %16

16:                                               ; preds = %.noexc2.i
  %17 = landingpad { ptr, i32 }
          cleanup
  call void @_ZNSaIcED2Ev(ptr noundef nonnull align 8 dereferenceable(32) %7) #24
  br label %.body.i

18:                                               ; preds = %.noexc.i, %2
  %19 = landingpad { ptr, i32 }
          cleanup
  br label %.body.i

common.resume:                                    ; preds = %.body, %.body.i
  %common.resume.op = phi { ptr, i32 } [ %eh.lpad-body.i, %.body.i ], [ %.pn, %.body ]
  resume { ptr, i32 } %common.resume.op

.body.i:                                          ; preds = %18, %16
  %eh.lpad-body.i = phi { ptr, i32 } [ %19, %18 ], [ %17, %16 ]
  call void @_ZNSaIcED1Ev(ptr noundef nonnull align 1 dereferenceable(1) %5) #24
  br label %common.resume

_ZN10open_spiel7othello12_GLOBAL__N_112ColumnStringB5cxx11Ei.exit: ; preds = %.noexc2.i
  call void @_ZNSaIcED1Ev(ptr noundef nonnull align 1 dereferenceable(1) %5) #24
  call void @llvm.lifetime.end.p0(i64 1, ptr nonnull %5)
  %20 = call noundef ptr @_ZNKSt7__cxx1112basic_stringIcSt11char_traitsIcESaIcEE4dataEv(ptr noundef nonnull align 8 dereferenceable(32) %7) #24
  %21 = call noundef i64 @_ZNKSt7__cxx1112basic_stringIcSt11char_traitsIcESaIcEE4sizeEv(ptr noundef nonnull align 8 dereferenceable(32) %7) #24
  store ptr %20, ptr %6, align 8
  %22 = icmp sgt i64 %21, -1
  br i1 %22, label %_ZN4absl7debian28AlphaNumC2ISaIcEEERKNSt7__cxx1112basic_stringIcSt11char_traitsIcET_EE.exit, label %23

23:                                               ; preds = %_ZN10open_spiel7othello12_GLOBAL__N_112ColumnStringB5cxx11Ei.exit
  call void @llvm.trap()
  unreachable

_ZN4absl7debian28AlphaNumC2ISaIcEEERKNSt7__cxx1112basic_stringIcSt11char_traitsIcET_EE.exit: ; preds = %_ZN10open_spiel7othello12_GLOBAL__N_112ColumnStringB5cxx11Ei.exit
  %24 = getelementptr inbounds nuw i8, ptr %6, i64 8
  store i64 %21, ptr %24, align 8
  %25 = load i32, ptr %1, align 4
  call void @llvm.lifetime.start.p0(i64 48, ptr nonnull %4)
  %26 = add nsw i32 %25, 1
  %27 = getelementptr inbounds nuw i8, ptr %4, i64 16
  %28 = invoke noundef ptr @_ZN4absl7debian216numbers_internal15FastIntToBufferEiPc(i32 noundef %26, ptr noundef nonnull %27)
          to label %.noexc unwind label %44

.noexc:                                           ; preds = %_ZN4absl7debian28AlphaNumC2ISaIcEEERKNSt7__cxx1112basic_stringIcSt11char_traitsIcET_EE.exit
  %29 = ptrtoint ptr %28 to i64
  %30 = ptrtoint ptr %27 to i64
  %31 = sub i64 %29, %30
  store ptr %27, ptr %4, align 8, !noalias !7
  %32 = icmp sgt i64 %31, -1
  br i1 %32, label %_ZN4absl7debian28AlphaNumC2Ei.exit.i, label %33

33:                                               ; preds = %.noexc
  call void @llvm.trap()
  unreachable

_ZN4absl7debian28AlphaNumC2Ei.exit.i:             ; preds = %.noexc
  %34 = getelementptr inbounds nuw i8, ptr %4, i64 8
  store i64 %31, ptr %34, align 8, !noalias !7
  call void @llvm.lifetime.start.p0(i64 1, ptr nonnull %3), !noalias !7
  call void @_ZNSaIcEC1Ev(ptr noundef nonnull align 1 dereferenceable(1) %3) #24, !noalias !10
  invoke void @_ZNSt7__cxx1112basic_stringIcSt11char_traitsIcESaIcEEC1EPKcmRKS3_(ptr noundef nonnull align 8 dereferenceable(32) %9, ptr noundef nonnull %27, i64 noundef %31, ptr noundef nonnull align 1 dereferenceable(1) %3)
          to label %37 unwind label %35

35:                                               ; preds = %_ZN4absl7debian28AlphaNumC2Ei.exit.i
  %36 = landingpad { ptr, i32 }
          cleanup
  call void @_ZNSaIcED1Ev(ptr noundef nonnull align 1 dereferenceable(1) %3) #24
  br label %.body

37:                                               ; preds = %_ZN4absl7debian28AlphaNumC2Ei.exit.i
  call void @_ZNSaIcED1Ev(ptr noundef nonnull align 1 dereferenceable(1) %3) #24
  call void @llvm.lifetime.end.p0(i64 1, ptr nonnull %3), !noalias !7
  call void @llvm.lifetime.end.p0(i64 48, ptr nonnull %4)
  %38 = call noundef ptr @_ZNKSt7__cxx1112basic_stringIcSt11char_traitsIcESaIcEE4dataEv(ptr noundef nonnull align 8 dereferenceable(32) %9) #24
  %39 = call noundef i64 @_ZNKSt7__cxx1112basic_stringIcSt11char_traitsIcESaIcEE4sizeEv(ptr noundef nonnull align 8 dereferenceable(32) %9) #24
  store ptr %38, ptr %8, align 8
  %40 = icmp sgt i64 %39, -1
  br i1 %40, label %_ZN4absl7debian28AlphaNumC2ISaIcEEERKNSt7__cxx1112basic_stringIcSt11char_traitsIcET_EE.exit4, label %41

41:                                               ; preds = %37
  call void @llvm.trap()
  unreachable

_ZN4absl7debian28AlphaNumC2ISaIcEEERKNSt7__cxx1112basic_stringIcSt11char_traitsIcET_EE.exit4: ; preds = %37
  %42 = getelementptr inbounds nuw i8, ptr %8, i64 8
  store i64 %39, ptr %42, align 8
  invoke void @_ZN4absl7debian26StrCatB5cxx11ERKNS0_8AlphaNumES3_(ptr dead_on_unwind writable sret(%"class.std::__cxx11::basic_string") align 8 %0, ptr noundef nonnull align 8 dereferenceable(48) %6, ptr noundef nonnull align 8 dereferenceable(48) %8)
          to label %43 unwind label %46

43:                                               ; preds = %_ZN4absl7debian28AlphaNumC2ISaIcEEERKNSt7__cxx1112basic_stringIcSt11char_traitsIcET_EE.exit4
  call void @_ZNSt7__cxx1112basic_stringIcSt11char_traitsIcESaIcEED1Ev(ptr noundef nonnull align 8 dereferenceable(32) %9) #24
  call void @_ZNSt7__cxx1112basic_stringIcSt11char_traitsIcESaIcEED1Ev(ptr noundef nonnull align 8 dereferenceable(32) %7) #24
  ret void

44:                                               ; preds = %_ZN4absl7debian28AlphaNumC2ISaIcEEERKNSt7__cxx1112basic_stringIcSt11char_traitsIcET_EE.exit
  %45 = landingpad { ptr, i32 }
          cleanup
  br label %.body

46:                                               ; preds = %_ZN4absl7debian28AlphaNumC2ISaIcEEERKNSt7__cxx1112basic_stringIcSt11char_traitsIcET_EE.exit4
  %47 = landingpad { ptr, i32 }
          cleanup
  call void @_ZNSt7__cxx1112basic_stringIcSt11char_traitsIcESaIcEED1Ev(ptr noundef nonnull align 8 dereferenceable(32) %9) #24
  br label %.body

.body:                                            ; preds = %44, %35, %46
  %.pn = phi { ptr, i32 } [ %47, %46 ], [ %45, %44 ], [ %36, %35 ]
  call void @_ZNSt7__cxx1112basic_stringIcSt11char_traitsIcESaIcEED1Ev(ptr noundef nonnull align 8 dereferenceable(32) %7) #24
  br label %common.resume
}